; ModuleID = '12/761.c'
source_filename = "12/761.c"
target datalayout = "e-m:e-p270:32:32-p271:32:32-p272:64:64-i64:64-f80:128-n8:16:32:64-S128"
target triple = "x86_64-pc-linux-gnu"

@.str = private unnamed_addr constant [3 x i8] c"%f\00", align 1
@.str.1 = private unnamed_addr constant [4 x i8] c"%d\0A\00", align 1

; Function Attrs: noinline nounwind uwtable
define dso_local i32 @main() #0 {
  %1 = alloca i32, align 4
  %2 = alloca [100 x float], align 16
  %3 = alloca i32, align 4
  %4 = alloca i32, align 4
  %5 = alloca i32, align 4
  store i32 0, i32* %1, align 4
  br label %6

6:                                                ; preds = %72, %0
  store i32 0, i32* %5, align 4
  store i32 0, i32* %3, align 4
  br label %7

7:                                                ; preds = %61, %6
  %8 = load i32, i32* %3, align 4
  %9 = icmp sle i32 %8, 99
  br i1 %9, label %10, label %64

10:                                               ; preds = %7
  %11 = load i32, i32* %3, align 4
  %12 = sext i32 %11 to i64
  %13 = getelementptr inbounds [100 x float], [100 x float]* %2, i64 0, i64 %12
  %14 = call i32 (i8*, ...) @__isoc99_scanf(i8* getelementptr inbounds ([3 x i8], [3 x i8]* @.str, i64 0, i64 0), float* %13)
  %15 = load i32, i32* %3, align 4
  %16 = icmp sge i32 %15, 1
  br i1 %16, label %17, label %60

17:                                               ; preds = %10
  %18 = load i32, i32* %3, align 4
  %19 = sext i32 %18 to i64
  %20 = getelementptr inbounds [100 x float], [100 x float]* %2, i64 0, i64 %19
  %21 = load float, float* %20, align 4
  %22 = fcmp oeq float %21, 0.000000e+00
  br i1 %22, label %23, label %24

23:                                               ; preds = %17
  br label %64

24:                                               ; preds = %17
  store i32 0, i32* %4, align 4
  br label %25

25:                                               ; preds = %56, %24
  %26 = load i32, i32* %4, align 4
  %27 = load i32, i32* %3, align 4
  %28 = sub nsw i32 %27, 1
  %29 = icmp sle i32 %26, %28
  br i1 %29, label %30, label %59

30:                                               ; preds = %25
  %31 = load i32, i32* %3, align 4
  %32 = sext i32 %31 to i64
  %33 = getelementptr inbounds [100 x float], [100 x float]* %2, i64 0, i64 %32
  %34 = load float, float* %33, align 4
  %35 = load i32, i32* %4, align 4
  %36 = sext i32 %35 to i64
  %37 = getelementptr inbounds [100 x float], [100 x float]* %2, i64 0, i64 %36
  %38 = load float, float* %37, align 4
  %39 = fmul float 2.000000e+00, %38
  %40 = fcmp oeq float %34, %39
  br i1 %40, label %52, label %41

41:                                               ; preds = %30
  %42 = load i32, i32* %3, align 4
  %43 = sext i32 %42 to i64
  %44 = getelementptr inbounds [100 x float], [100 x float]* %2, i64 0, i64 %43
  %45 = load float, float* %44, align 4
  %46 = load i32, i32* %4, align 4
  %47 = sext i32 %46 to i64
  %48 = getelementptr inbounds [100 x float], [100 x float]* %2, i64 0, i64 %47
  %49 = load float, float* %48, align 4
  %50 = fdiv float %49, 2.000000e+00
  %51 = fcmp oeq float %45, %50
  br i1 %51, label %52, label %55

52:                                               ; preds = %41, %30
  %53 = load i32, i32* %5, align 4
  %54 = add nsw i32 %53, 1
  store i32 %54, i32* %5, align 4
  br label %55

55:                                               ; preds = %52, %41
  br label %56

56:                                               ; preds = %55
  %57 = load i32, i32* %4, align 4
  %58 = add nsw i32 %57, 1
  store i32 %58, i32* %4, align 4
  br label %25

59:                                               ; preds = %25
  br label %60

60:                                               ; preds = %59, %10
  br label %61

61:                                               ; preds = %60
  %62 = load i32, i32* %3, align 4
  %63 = add nsw i32 %62, 1
  store i32 %63, i32* %3, align 4
  br label %7

64:                                               ; preds = %23, %7
  %65 = getelementptr inbounds [100 x float], [100 x float]* %2, i64 0, i64 0
  %66 = load float, float* %65, align 16
  %67 = fcmp une float %66, -1.000000e+00
  br i1 %67, label %68, label %71

68:                                               ; preds = %64
  %69 = load i32, i32* %5, align 4
  %70 = call i32 (i8*, ...) @printf(i8* getelementptr inbounds ([4 x i8], [4 x i8]* @.str.1, i64 0, i64 0), i32 %69)
  br label %71

71:                                               ; preds = %68, %64
  br label %72

72:                                               ; preds = %71
  %73 = getelementptr inbounds [100 x float], [100 x float]* %2, i64 0, i64 0
  %74 = load float, float* %73, align 16
  %75 = fcmp une float %74, -1.000000e+00
  br i1 %75, label %6, label %76

76:                                               ; preds = %72
  ret i32 0
}

declare dso_local i32 @__isoc99_scanf(i8*, ...) #1

declare dso_local i32 @printf(i8*, ...) #1


!llvm.module.flags = !{!0}
!llvm.ident = !{!1}

!0 = !{i32 1, !"wchar_size", i32 4}
!1 = !{!"clang version 10.0.0-4ubuntu1 "}
